target datalayout = "e-m:e-p270:32:32-p271:32:32-p272:64:64-i64:64-i128:128-f80:128-n8:16:32:64-S128"
target triple = "x86_64-pc-linux-gnu"

%struct.SDL_SensorDriver = type { ptr, ptr, ptr, ptr, ptr, ptr, ptr, ptr, ptr, ptr, ptr }

@SDL_DUMMY_SensorDriver = hidden global %struct.SDL_SensorDriver { ptr @SDL_DUMMY_SensorInit, ptr @SDL_DUMMY_SensorGetCount, ptr @SDL_DUMMY_SensorDetect, ptr @SDL_DUMMY_SensorGetDeviceName, ptr @SDL_DUMMY_SensorGetDeviceType, ptr @SDL_DUMMY_SensorGetDeviceNonPortableType, ptr @SDL_DUMMY_SensorGetDeviceInstanceID, ptr @SDL_DUMMY_SensorOpen, ptr @SDL_DUMMY_SensorUpdate, ptr @SDL_DUMMY_SensorClose, ptr @SDL_DUMMY_SensorQuit }, align 8
@.str = private unnamed_addr constant [32 x i8] c"That operation is not supported\00", align 1

; Function Attrs: nounwind uwtable
define internal zeroext i1 @SDL_DUMMY_SensorInit() #0 {
  ret i1 true
}

; Function Attrs: nounwind uwtable
define internal i32 @SDL_DUMMY_SensorGetCount() #0 {
  ret i32 0
}

; Function Attrs: nounwind uwtable
define internal void @SDL_DUMMY_SensorDetect() #0 {
  ret void
}

; Function Attrs: nounwind uwtable
define internal ptr @SDL_DUMMY_SensorGetDeviceName(i32 noundef %0) #0 {
  %2 = alloca i32, align 4
  store i32 %0, ptr %2, align 4
  ret ptr null
}

; Function Attrs: nounwind uwtable
define internal i32 @SDL_DUMMY_SensorGetDeviceType(i32 noundef %0) #0 {
  %2 = alloca i32, align 4
  store i32 %0, ptr %2, align 4
  ret i32 -1
}

; Function Attrs: nounwind uwtable
define internal i32 @SDL_DUMMY_SensorGetDeviceNonPortableType(i32 noundef %0) #0 {
  %2 = alloca i32, align 4
  store i32 %0, ptr %2, align 4
  ret i32 -1
}

; Function Attrs: nounwind uwtable
define internal i32 @SDL_DUMMY_SensorGetDeviceInstanceID(i32 noundef %0) #0 {
  %2 = alloca i32, align 4
  store i32 %0, ptr %2, align 4
  ret i32 -1
}

; Function Attrs: nounwind uwtable
define internal zeroext i1 @SDL_DUMMY_SensorOpen(ptr noundef %0, i32 noundef %1) #0 {
  %3 = alloca ptr, align 8
  %4 = alloca i32, align 4
  store ptr %0, ptr %3, align 8
  store i32 %1, ptr %4, align 4
  %5 = call zeroext i1 (ptr, ...) @SDL_SetError_REAL(ptr noundef @.str)
  ret i1 %5
}

; Function Attrs: nounwind uwtable
define internal void @SDL_DUMMY_SensorUpdate(ptr noundef %0) #0 {
  %2 = alloca ptr, align 8
  store ptr %0, ptr %2, align 8
  ret void
}

; Function Attrs: nounwind uwtable
define internal void @SDL_DUMMY_SensorClose(ptr noundef %0) #0 {
  %2 = alloca ptr, align 8
  store ptr %0, ptr %2, align 8
  ret void
}

; Function Attrs: nounwind uwtable
define internal void @SDL_DUMMY_SensorQuit() #0 {
  ret void
}

declare zeroext i1 @SDL_SetError_REAL(ptr noundef, ...) #1


!llvm.module.flags = !{!0, !1, !2}

!0 = !{i32 1, !"wchar_size", i32 4}
!1 = !{i32 8, !"PIC Level", i32 2}
!2 = !{i32 7, !"uwtable", i32 2}
